; Function Attrs: inlinehint nounwind uwtable
define internal fastcc noalias nonnull ptr @lean_box_uint64(i64 noundef %0) unnamed_addr #0 {
  tail call void @lean_inc_heartbeat() #6
  %2 = tail call noalias ptr @mi_malloc_small(i64 noundef 16) #6
  %3 = icmp eq ptr %2, null
  br i1 %3, label %4, label %lean_alloc_ctor.exit

4:                                                ; preds = %1
  tail call void @lean_internal_panic_out_of_memory() #7
  unreachable

lean_alloc_ctor.exit:                             ; preds = %1
  %5 = getelementptr inbounds nuw i8, ptr %2, i64 4
  store i32 1, ptr %2, align 4, !tbaa !6
  store i32 16, ptr %5, align 4
  %6 = getelementptr inbounds nuw i8, ptr %2, i64 8
  store i64 %0, ptr %6, align 8, !tbaa !15
  ret ptr %2
}